target datalayout = "e-m:e-p270:32:32-p271:32:32-p272:64:64-i64:64-i128:128-f80:128-n8:16:32:64-S128"
target triple = "x86_64-pc-linux-gnu"

@.str.5 = private unnamed_addr constant [2 x i8] c"\0A\00", align 1
@.str.6 = private unnamed_addr constant [35 x i8] c"    freduce [options] [selection]\0A\00", align 1
@.str.7 = private unnamed_addr constant [79 x i8] c"This pass performs functional reduction in the circuit. I.e. if two nodes are\0A\00", align 1
@.str.8 = private unnamed_addr constant [77 x i8] c"equivalent, they are merged to one node and one of the redundant drivers is\0A\00", align 1
@.str.9 = private unnamed_addr constant [79 x i8] c"disconnected. A subsequent call to 'clean' will remove the redundant drivers.\0A\00", align 1
@.str.10 = private unnamed_addr constant [13 x i8] c"    -v, -vv\0A\00", align 1
@.str.11 = private unnamed_addr constant [47 x i8] c"        enable verbose or very verbose output\0A\00", align 1
@.str.12 = private unnamed_addr constant [10 x i8] c"    -inv\0A\00", align 1
@.str.13 = private unnamed_addr constant [54 x i8] c"        enable explicit handling of inverted signals\0A\00", align 1
@.str.14 = private unnamed_addr constant [15 x i8] c"    -stop <n>\0A\00", align 1
@.str.15 = private unnamed_addr constant [70 x i8] c"        stop after <n> reduction operations. this is mostly used for\0A\00", align 1
@.str.16 = private unnamed_addr constant [47 x i8] c"        debugging the freduce command itself.\0A\00", align 1
@.str.17 = private unnamed_addr constant [20 x i8] c"    -dump <prefix>\0A\00", align 1
@.str.18 = private unnamed_addr constant [76 x i8] c"        dump the design to <prefix>_<module>_<num>.il after each reduction\0A\00", align 1
@.str.19 = private unnamed_addr constant [75 x i8] c"        operation. this is mostly used for debugging the freduce command.\0A\00", align 1
@.str.20 = private unnamed_addr constant [77 x i8] c"This pass is undef-aware, i.e. it considers don't-care values for detecting\0A\00", align 1
@.str.21 = private unnamed_addr constant [19 x i8] c"equivalent nodes.\0A\00", align 1
@.str.22 = private unnamed_addr constant [78 x i8] c"All selected wires are considered for rewiring. The selected cells cover the\0A\00", align 1
@.str.23 = private unnamed_addr constant [27 x i8] c"circuit that is analyzed.\0A\00", align 1

; Function Attrs: mustprogress uwtable
define internal void @_ZN12_GLOBAL__N_111FreducePass4helpEv(ptr noundef nonnull align 8 dereferenceable(104) %0) unnamed_addr #5 align 2 {
  %2 = alloca ptr, align 8
  store ptr %0, ptr %2, align 8, !tbaa !11
  call void (ptr, ...) @_ZN5Yosys3logEPKcz(ptr noundef @.str.5)
  call void (ptr, ...) @_ZN5Yosys3logEPKcz(ptr noundef @.str.6)
  call void (ptr, ...) @_ZN5Yosys3logEPKcz(ptr noundef @.str.5)
  call void (ptr, ...) @_ZN5Yosys3logEPKcz(ptr noundef @.str.7)
  call void (ptr, ...) @_ZN5Yosys3logEPKcz(ptr noundef @.str.8)
  call void (ptr, ...) @_ZN5Yosys3logEPKcz(ptr noundef @.str.9)
  call void (ptr, ...) @_ZN5Yosys3logEPKcz(ptr noundef @.str.5)
  call void (ptr, ...) @_ZN5Yosys3logEPKcz(ptr noundef @.str.10)
  call void (ptr, ...) @_ZN5Yosys3logEPKcz(ptr noundef @.str.11)
  call void (ptr, ...) @_ZN5Yosys3logEPKcz(ptr noundef @.str.5)
  call void (ptr, ...) @_ZN5Yosys3logEPKcz(ptr noundef @.str.12)
  call void (ptr, ...) @_ZN5Yosys3logEPKcz(ptr noundef @.str.13)
  call void (ptr, ...) @_ZN5Yosys3logEPKcz(ptr noundef @.str.5)
  call void (ptr, ...) @_ZN5Yosys3logEPKcz(ptr noundef @.str.14)
  call void (ptr, ...) @_ZN5Yosys3logEPKcz(ptr noundef @.str.15)
  call void (ptr, ...) @_ZN5Yosys3logEPKcz(ptr noundef @.str.16)
  call void (ptr, ...) @_ZN5Yosys3logEPKcz(ptr noundef @.str.5)
  call void (ptr, ...) @_ZN5Yosys3logEPKcz(ptr noundef @.str.17)
  call void (ptr, ...) @_ZN5Yosys3logEPKcz(ptr noundef @.str.18)
  call void (ptr, ...) @_ZN5Yosys3logEPKcz(ptr noundef @.str.19)
  call void (ptr, ...) @_ZN5Yosys3logEPKcz(ptr noundef @.str.5)
  call void (ptr, ...) @_ZN5Yosys3logEPKcz(ptr noundef @.str.20)
  call void (ptr, ...) @_ZN5Yosys3logEPKcz(ptr noundef @.str.21)
  call void (ptr, ...) @_ZN5Yosys3logEPKcz(ptr noundef @.str.5)
  call void (ptr, ...) @_ZN5Yosys3logEPKcz(ptr noundef @.str.22)
  call void (ptr, ...) @_ZN5Yosys3logEPKcz(ptr noundef @.str.23)
  call void (ptr, ...) @_ZN5Yosys3logEPKcz(ptr noundef @.str.5)
  ret void
}